target datalayout = "e-m:e-p270:32:32-p271:32:32-p272:64:64-i64:64-i128:128-f80:128-n8:16:32:64-S128"
target triple = "x86_64-pc-linux-gnu"

; Function Attrs: nounwind uwtable
define internal ptr @quote_postgres(ptr noundef %0, i1 noundef zeroext %1, i32 noundef %2) #0 {
  %4 = alloca ptr, align 8
  %5 = alloca ptr, align 8
  %6 = alloca i8, align 1
  %7 = alloca i32, align 4
  %8 = alloca ptr, align 8
  %9 = alloca i64, align 8
  %10 = alloca i64, align 8
  %11 = alloca i64, align 8
  %12 = alloca i32, align 4
  store ptr %0, ptr %5, align 8
  %13 = zext i1 %1 to i8
  store i8 %13, ptr %6, align 1
  store i32 %2, ptr %7, align 4
  call void @llvm.lifetime.start.p0(i64 8, ptr %8) #10
  call void @llvm.lifetime.start.p0(i64 8, ptr %9) #10
  call void @llvm.lifetime.start.p0(i64 8, ptr %10) #10
  call void @llvm.lifetime.start.p0(i64 8, ptr %11) #10
  %14 = load i8, ptr %6, align 1, !range !7, !noundef !8
  %15 = trunc i8 %14 to i1
  br i1 %15, label %18, label %16

16:                                               ; preds = %3
  %17 = load ptr, ptr %5, align 8
  store ptr %17, ptr %4, align 8
  store i32 1, ptr %12, align 4
  br label %73

18:                                               ; preds = %3
  %19 = load ptr, ptr %5, align 8
  %20 = call i64 @strlen(ptr noundef %19) #11
  store i64 %20, ptr %9, align 8
  %21 = load i64, ptr %9, align 8
  %22 = mul i64 2, %21
  %23 = add i64 %22, 1
  store i64 %23, ptr %11, align 8
  %24 = load i64, ptr %11, align 8
  %25 = add i64 %24, 3
  %26 = load i32, ptr %7, align 4
  %27 = call ptr @ecpg_alloc(i64 noundef %25, i32 noundef %26)
  store ptr %27, ptr %8, align 8
  %28 = load ptr, ptr %8, align 8
  %29 = icmp ne ptr %28, null
  br i1 %29, label %32, label %30

30:                                               ; preds = %18
  %31 = load ptr, ptr %8, align 8
  store ptr %31, ptr %4, align 8
  store i32 1, ptr %12, align 4
  br label %73

32:                                               ; preds = %18
  %33 = load ptr, ptr %8, align 8
  %34 = getelementptr inbounds i8, ptr %33, i64 1
  %35 = load ptr, ptr %5, align 8
  %36 = load i64, ptr %11, align 8
  %37 = call i64 @PQescapeString(ptr noundef %34, ptr noundef %35, i64 noundef %36)
  store i64 %37, ptr %10, align 8
  %38 = load i64, ptr %9, align 8
  %39 = load i64, ptr %10, align 8
  %40 = icmp eq i64 %38, %39
  br i1 %40, label %41, label %52

41:                                               ; preds = %32
  %42 = load ptr, ptr %8, align 8
  %43 = load i64, ptr %10, align 8
  %44 = add i64 %43, 1
  %45 = getelementptr inbounds nuw i8, ptr %42, i64 %44
  store i8 39, ptr %45, align 1
  %46 = load ptr, ptr %8, align 8
  %47 = getelementptr inbounds i8, ptr %46, i64 0
  store i8 39, ptr %47, align 1
  %48 = load ptr, ptr %8, align 8
  %49 = load i64, ptr %10, align 8
  %50 = add i64 %49, 2
  %51 = getelementptr inbounds nuw i8, ptr %48, i64 %50
  store i8 0, ptr %51, align 1
  br label %70

52:                                               ; preds = %32
  %53 = load ptr, ptr %8, align 8
  %54 = getelementptr inbounds i8, ptr %53, i64 2
  %55 = load ptr, ptr %8, align 8
  %56 = getelementptr inbounds i8, ptr %55, i64 1
  %57 = load i64, ptr %10, align 8
  call void @llvm.memmove.p0.p0.i64(ptr align 1 %54, ptr align 1 %56, i64 %57, i1 false)
  %58 = load ptr, ptr %8, align 8
  %59 = getelementptr inbounds i8, ptr %58, i64 0
  store i8 69, ptr %59, align 1
  %60 = load ptr, ptr %8, align 8
  %61 = load i64, ptr %10, align 8
  %62 = add i64 %61, 2
  %63 = getelementptr inbounds nuw i8, ptr %60, i64 %62
  store i8 39, ptr %63, align 1
  %64 = load ptr, ptr %8, align 8
  %65 = getelementptr inbounds i8, ptr %64, i64 1
  store i8 39, ptr %65, align 1
  %66 = load ptr, ptr %8, align 8
  %67 = load i64, ptr %10, align 8
  %68 = add i64 %67, 3
  %69 = getelementptr inbounds nuw i8, ptr %66, i64 %68
  store i8 0, ptr %69, align 1
  br label %70

70:                                               ; preds = %52, %41
  %71 = load ptr, ptr %5, align 8
  call void @ecpg_free(ptr noundef %71)
  %72 = load ptr, ptr %8, align 8
  store ptr %72, ptr %4, align 8
  store i32 1, ptr %12, align 4
  br label %73

73:                                               ; preds = %70, %30, %16
  call void @llvm.lifetime.end.p0(i64 8, ptr %11) #10
  call void @llvm.lifetime.end.p0(i64 8, ptr %10) #10
  call void @llvm.lifetime.end.p0(i64 8, ptr %9) #10
  call void @llvm.lifetime.end.p0(i64 8, ptr %8) #10
  %74 = load ptr, ptr %4, align 8
  ret ptr %74
}