; Function Attrs: nounwind uwtable
define internal fastcc ptr @quote_postgres(ptr noundef %0, i1 noundef zeroext %1, i32 noundef %2) unnamed_addr #0 {
  br i1 %1, label %4, label %24

4:                                                ; preds = %3
  %5 = tail call i64 @strlen(ptr noundef nonnull dereferenceable(1) %0) #15
  %6 = shl i64 %5, 1
  %7 = add i64 %6, 4
  %8 = tail call ptr @ecpg_alloc(i64 noundef %7, i32 noundef %2) #14
  %.not = icmp eq ptr %8, null
  br i1 %.not, label %24, label %9

9:                                                ; preds = %4
  %10 = or disjoint i64 %6, 1
  %11 = getelementptr inbounds nuw i8, ptr %8, i64 1
  %12 = tail call i64 @PQescapeString(ptr noundef nonnull %11, ptr noundef nonnull %0, i64 noundef %10) #14
  %13 = icmp eq i64 %5, %12
  br i1 %13, label %14, label %18

14:                                               ; preds = %9
  %15 = getelementptr i8, ptr %8, i64 %5
  %16 = getelementptr i8, ptr %15, i64 1
  store i8 39, ptr %16, align 1
  store i8 39, ptr %8, align 1
  %17 = getelementptr i8, ptr %15, i64 2
  store i8 0, ptr %17, align 1
  br label %23

18:                                               ; preds = %9
  %19 = getelementptr inbounds nuw i8, ptr %8, i64 2
  tail call void @llvm.memmove.p0.p0.i64(ptr nonnull align 1 %19, ptr nonnull align 1 %11, i64 %12, i1 false)
  store i8 69, ptr %8, align 1
  %20 = getelementptr i8, ptr %8, i64 %12
  %21 = getelementptr i8, ptr %20, i64 2
  store i8 39, ptr %21, align 1
  store i8 39, ptr %11, align 1
  %22 = getelementptr i8, ptr %20, i64 3
  store i8 0, ptr %22, align 1
  br label %23

23:                                               ; preds = %18, %14
  tail call void @ecpg_free(ptr noundef nonnull %0) #14
  br label %24

24:                                               ; preds = %4, %3, %23
  %.0 = phi ptr [ %8, %23 ], [ %0, %3 ], [ null, %4 ]
  ret ptr %.0
}